target datalayout = "e-m:e-p270:32:32-p271:32:32-p272:64:64-i64:64-i128:128-f80:128-n8:16:32:64-S128"
target triple = "x86_64-pc-linux-gnu"

%struct.XXH128_hash_t = type { i64, i64 }

; Function Attrs: mustprogress nounwind uwtable
define internal { i64, i64 } @_ZL15XXH_mult64to128mm(i64 noundef %0, i64 noundef %1) #4 {
  %3 = alloca %struct.XXH128_hash_t, align 8
  %4 = alloca i64, align 8
  %5 = alloca i64, align 8
  %6 = alloca i128, align 16
  store i64 %0, ptr %4, align 8, !tbaa !8
  store i64 %1, ptr %5, align 8, !tbaa !8
  call void @llvm.lifetime.start.p0(i64 16, ptr %6) #22
  %7 = load i64, ptr %4, align 8, !tbaa !8
  %8 = zext i64 %7 to i128
  %9 = load i64, ptr %5, align 8, !tbaa !8
  %10 = zext i64 %9 to i128
  %11 = mul i128 %8, %10
  store i128 %11, ptr %6, align 16, !tbaa !67
  %12 = load i128, ptr %6, align 16, !tbaa !67
  %13 = trunc i128 %12 to i64
  %14 = getelementptr inbounds nuw %struct.XXH128_hash_t, ptr %3, i32 0, i32 0
  store i64 %13, ptr %14, align 8, !tbaa !58
  %15 = load i128, ptr %6, align 16, !tbaa !67
  %16 = lshr i128 %15, 64
  %17 = trunc i128 %16 to i64
  %18 = getelementptr inbounds nuw %struct.XXH128_hash_t, ptr %3, i32 0, i32 1
  store i64 %17, ptr %18, align 8, !tbaa !60
  call void @llvm.lifetime.end.p0(i64 16, ptr %6) #22
  %19 = load { i64, i64 }, ptr %3, align 8
  ret { i64, i64 } %19
}

; Function Attrs: mustprogress nounwind uwtable
define internal noundef i64 @_ZL10XXH_read64PKv(ptr noundef %0) #4 {
  %2 = alloca ptr, align 8
  store ptr %0, ptr %2, align 8, !tbaa !4
  %3 = load ptr, ptr %2, align 8, !tbaa !4
  %4 = load i64, ptr %3, align 1, !tbaa !8
  ret i64 %4
}

; Function Attrs: alwaysinline mustprogress nounwind willreturn memory(none) uwtable
define internal noundef i64 @_ZL14XXH_xorshift64mi(i64 noundef %0, i32 noundef %1) #17 {
  %3 = alloca i64, align 8
  %4 = alloca i32, align 4
  store i64 %0, ptr %3, align 8, !tbaa !8
  store i32 %1, ptr %4, align 4, !tbaa !10
  %5 = load i32, ptr %4, align 4, !tbaa !10
  %6 = icmp sle i32 0, %5
  br i1 %6, label %7, label %10

7:                                                ; preds = %2
  %8 = load i32, ptr %4, align 4, !tbaa !10
  %9 = icmp slt i32 %8, 64
  br i1 %9, label %11, label %10

10:                                               ; preds = %7, %2
  unreachable

11:                                               ; preds = %7
  %12 = load i64, ptr %3, align 8, !tbaa !8
  %13 = load i64, ptr %3, align 8, !tbaa !8
  %14 = load i32, ptr %4, align 4, !tbaa !10
  %15 = zext i32 %14 to i64
  %16 = lshr i64 %13, %15
  %17 = xor i64 %12, %16
  ret i64 %17
}

; Function Attrs: mustprogress uwtable
define internal noundef i64 @_ZL18XXH3_mul128_fold64mm(i64 noundef %0, i64 noundef %1) #3 {
  %3 = alloca i64, align 8
  %4 = alloca i64, align 8
  %5 = alloca %struct.XXH128_hash_t, align 8
  store i64 %0, ptr %3, align 8, !tbaa !8
  store i64 %1, ptr %4, align 8, !tbaa !8
  call void @llvm.lifetime.start.p0(i64 16, ptr %5) #22
  %6 = load i64, ptr %3, align 8, !tbaa !8
  %7 = load i64, ptr %4, align 8, !tbaa !8
  %8 = call { i64, i64 } @_ZL15XXH_mult64to128mm(i64 noundef %6, i64 noundef %7)
  %9 = getelementptr inbounds nuw { i64, i64 }, ptr %5, i32 0, i32 0
  %10 = extractvalue { i64, i64 } %8, 0
  store i64 %10, ptr %9, align 8
  %11 = getelementptr inbounds nuw { i64, i64 }, ptr %5, i32 0, i32 1
  %12 = extractvalue { i64, i64 } %8, 1
  store i64 %12, ptr %11, align 8
  %13 = getelementptr inbounds nuw %struct.XXH128_hash_t, ptr %5, i32 0, i32 0
  %14 = load i64, ptr %13, align 8, !tbaa !58
  %15 = getelementptr inbounds nuw %struct.XXH128_hash_t, ptr %5, i32 0, i32 1
  %16 = load i64, ptr %15, align 8, !tbaa !60
  %17 = xor i64 %14, %16
  call void @llvm.lifetime.end.p0(i64 16, ptr %5) #22
  ret i64 %17
}

; Function Attrs: alwaysinline mustprogress uwtable
define internal noundef i64 @_ZL12XXH_readLE64PKv(ptr noundef %0) #7 {
  %2 = alloca ptr, align 8
  store ptr %0, ptr %2, align 8, !tbaa !4
  %3 = load ptr, ptr %2, align 8, !tbaa !4
  %4 = call noundef i64 @_ZL10XXH_read64PKv(ptr noundef %3)
  ret i64 %4
}

; Function Attrs: mustprogress nounwind uwtable
define internal noundef i64 @_ZL14XXH3_avalanchem(i64 noundef %0) #4 {
  %2 = alloca i64, align 8
  store i64 %0, ptr %2, align 8, !tbaa !8
  %3 = load i64, ptr %2, align 8, !tbaa !8
  %4 = call noundef i64 @_ZL14XXH_xorshift64mi(i64 noundef %3, i32 noundef 37) #24
  store i64 %4, ptr %2, align 8, !tbaa !8
  %5 = load i64, ptr %2, align 8, !tbaa !8
  %6 = mul i64 %5, 1609587791953885689
  store i64 %6, ptr %2, align 8, !tbaa !8
  %7 = load i64, ptr %2, align 8, !tbaa !8
  %8 = call noundef i64 @_ZL14XXH_xorshift64mi(i64 noundef %7, i32 noundef 32) #24
  store i64 %8, ptr %2, align 8, !tbaa !8
  %9 = load i64, ptr %2, align 8, !tbaa !8
  ret i64 %9
}

; Function Attrs: alwaysinline mustprogress uwtable
define internal noundef i64 @_ZL11XXH3_mix16BPKhS0_m(ptr noundef %0, ptr noundef %1, i64 noundef %2) #7 {
  %4 = alloca ptr, align 8
  %5 = alloca ptr, align 8
  %6 = alloca i64, align 8
  %7 = alloca i64, align 8
  %8 = alloca i64, align 8
  store ptr %0, ptr %4, align 8, !tbaa !12
  store ptr %1, ptr %5, align 8, !tbaa !12
  store i64 %2, ptr %6, align 8, !tbaa !8
  call void @llvm.lifetime.start.p0(i64 8, ptr %7) #22
  %9 = load ptr, ptr %4, align 8, !tbaa !12
  %10 = call noundef i64 @_ZL12XXH_readLE64PKv(ptr noundef %9)
  store i64 %10, ptr %7, align 8, !tbaa !8
  call void @llvm.lifetime.start.p0(i64 8, ptr %8) #22
  %11 = load ptr, ptr %4, align 8, !tbaa !12
  %12 = getelementptr inbounds i8, ptr %11, i64 8
  %13 = call noundef i64 @_ZL12XXH_readLE64PKv(ptr noundef %12)
  store i64 %13, ptr %8, align 8, !tbaa !8
  %14 = load i64, ptr %7, align 8, !tbaa !8
  %15 = load ptr, ptr %5, align 8, !tbaa !12
  %16 = call noundef i64 @_ZL12XXH_readLE64PKv(ptr noundef %15)
  %17 = load i64, ptr %6, align 8, !tbaa !8
  %18 = add i64 %16, %17
  %19 = xor i64 %14, %18
  %20 = load i64, ptr %8, align 8, !tbaa !8
  %21 = load ptr, ptr %5, align 8, !tbaa !12
  %22 = getelementptr inbounds i8, ptr %21, i64 8
  %23 = call noundef i64 @_ZL12XXH_readLE64PKv(ptr noundef %22)
  %24 = load i64, ptr %6, align 8, !tbaa !8
  %25 = sub i64 %23, %24
  %26 = xor i64 %20, %25
  %27 = call noundef i64 @_ZL18XXH3_mul128_fold64mm(i64 noundef %19, i64 noundef %26)
  call void @llvm.lifetime.end.p0(i64 8, ptr %8) #22
  call void @llvm.lifetime.end.p0(i64 8, ptr %7) #22
  ret i64 %27
}

; Function Attrs: mustprogress noinline nounwind willreturn memory(read) uwtable
define internal noundef i64 @_ZL21XXH3_len_129to240_64bPKhmS0_mm(ptr noundef %0, i64 noundef %1, ptr noundef %2, i64 noundef %3, i64 noundef %4) #9 {
  %6 = alloca ptr, align 8
  %7 = alloca i64, align 8
  %8 = alloca ptr, align 8
  %9 = alloca i64, align 8
  %10 = alloca i64, align 8
  %11 = alloca i64, align 8
  %12 = alloca i64, align 8
  %13 = alloca i32, align 4
  %14 = alloca i32, align 4
  store ptr %0, ptr %6, align 8, !tbaa !12
  store i64 %1, ptr %7, align 8, !tbaa !8
  store ptr %2, ptr %8, align 8, !tbaa !12
  store i64 %3, ptr %9, align 8, !tbaa !8
  store i64 %4, ptr %10, align 8, !tbaa !8
  %15 = load i64, ptr %9, align 8, !tbaa !8
  %16 = icmp uge i64 %15, 136
  br i1 %16, label %18, label %17

17:                                               ; preds = %5
  unreachable

18:                                               ; preds = %5
  %19 = load i64, ptr %7, align 8, !tbaa !8
  %20 = icmp ult i64 128, %19
  br i1 %20, label %21, label %24

21:                                               ; preds = %18
  %22 = load i64, ptr %7, align 8, !tbaa !8
  %23 = icmp ule i64 %22, 240
  br i1 %23, label %25, label %24

24:                                               ; preds = %21, %18
  unreachable

25:                                               ; preds = %21
  call void @llvm.lifetime.start.p0(i64 8, ptr %11) #22
  %26 = load i64, ptr %7, align 8, !tbaa !8
  %27 = mul i64 %26, -7046029288634856825
  store i64 %27, ptr %11, align 8, !tbaa !8
  call void @llvm.lifetime.start.p0(i64 8, ptr %12) #22
  call void @llvm.lifetime.start.p0(i64 4, ptr %13) #22
  %28 = load i64, ptr %7, align 8, !tbaa !8
  %29 = trunc i64 %28 to i32
  %30 = udiv i32 %29, 16
  store i32 %30, ptr %13, align 4, !tbaa !10
  call void @llvm.lifetime.start.p0(i64 4, ptr %14) #22
  %31 = load i64, ptr %7, align 8, !tbaa !8
  %32 = icmp ult i64 128, %31
  br i1 %32, label %33, label %36

33:                                               ; preds = %25
  %34 = load i64, ptr %7, align 8, !tbaa !8
  %35 = icmp ule i64 %34, 240
  br i1 %35, label %37, label %36

36:                                               ; preds = %33, %25
  unreachable

37:                                               ; preds = %33
  store i32 0, ptr %14, align 4, !tbaa !10
  br label %38

38:                                               ; preds = %56, %37
  %39 = load i32, ptr %14, align 4, !tbaa !10
  %40 = icmp ult i32 %39, 8
  br i1 %40, label %41, label %59

41:                                               ; preds = %38
  %42 = load ptr, ptr %6, align 8, !tbaa !12
  %43 = load i32, ptr %14, align 4, !tbaa !10
  %44 = mul i32 16, %43
  %45 = zext i32 %44 to i64
  %46 = getelementptr inbounds nuw i8, ptr %42, i64 %45
  %47 = load ptr, ptr %8, align 8, !tbaa !12
  %48 = load i32, ptr %14, align 4, !tbaa !10
  %49 = mul i32 16, %48
  %50 = zext i32 %49 to i64
  %51 = getelementptr inbounds nuw i8, ptr %47, i64 %50
  %52 = load i64, ptr %10, align 8, !tbaa !8
  %53 = call noundef i64 @_ZL11XXH3_mix16BPKhS0_m(ptr noundef %46, ptr noundef %51, i64 noundef %52)
  %54 = load i64, ptr %11, align 8, !tbaa !8
  %55 = add i64 %54, %53
  store i64 %55, ptr %11, align 8, !tbaa !8
  br label %56

56:                                               ; preds = %41
  %57 = load i32, ptr %14, align 4, !tbaa !10
  %58 = add i32 %57, 1
  store i32 %58, ptr %14, align 4, !tbaa !10
  br label %38, !llvm.loop !64

59:                                               ; preds = %38
  %60 = load ptr, ptr %6, align 8, !tbaa !12
  %61 = load i64, ptr %7, align 8, !tbaa !8
  %62 = getelementptr inbounds nuw i8, ptr %60, i64 %61
  %63 = getelementptr inbounds i8, ptr %62, i64 -16
  %64 = load ptr, ptr %8, align 8, !tbaa !12
  %65 = getelementptr inbounds i8, ptr %64, i64 136
  %66 = getelementptr inbounds i8, ptr %65, i64 -17
  %67 = load i64, ptr %10, align 8, !tbaa !8
  %68 = call noundef i64 @_ZL11XXH3_mix16BPKhS0_m(ptr noundef %63, ptr noundef %66, i64 noundef %67)
  store i64 %68, ptr %12, align 8, !tbaa !8
  %69 = load i32, ptr %13, align 4, !tbaa !10
  %70 = icmp uge i32 %69, 8
  br i1 %70, label %72, label %71

71:                                               ; preds = %59
  unreachable

72:                                               ; preds = %59
  %73 = load i64, ptr %11, align 8, !tbaa !8
  %74 = call noundef i64 @_ZL14XXH3_avalanchem(i64 noundef %73)
  store i64 %74, ptr %11, align 8, !tbaa !8
  store i32 8, ptr %14, align 4, !tbaa !10
  br label %75

75:                                               ; preds = %98, %72
  %76 = load i32, ptr %14, align 4, !tbaa !10
  %77 = load i32, ptr %13, align 4, !tbaa !10
  %78 = icmp ult i32 %76, %77
  br i1 %78, label %79, label %101

79:                                               ; preds = %75
  %80 = load i64, ptr %11, align 8, !tbaa !8
  %81 = call i64 asm sideeffect "", "=r,0,~{dirflag},~{fpsr},~{flags}"(i64 %80) #22, !srcloc !65
  store i64 %81, ptr %11, align 8, !tbaa !8
  %82 = load ptr, ptr %6, align 8, !tbaa !12
  %83 = load i32, ptr %14, align 4, !tbaa !10
  %84 = mul i32 16, %83
  %85 = zext i32 %84 to i64
  %86 = getelementptr inbounds nuw i8, ptr %82, i64 %85
  %87 = load ptr, ptr %8, align 8, !tbaa !12
  %88 = load i32, ptr %14, align 4, !tbaa !10
  %89 = sub i32 %88, 8
  %90 = mul i32 16, %89
  %91 = zext i32 %90 to i64
  %92 = getelementptr inbounds nuw i8, ptr %87, i64 %91
  %93 = getelementptr inbounds i8, ptr %92, i64 3
  %94 = load i64, ptr %10, align 8, !tbaa !8
  %95 = call noundef i64 @_ZL11XXH3_mix16BPKhS0_m(ptr noundef %86, ptr noundef %93, i64 noundef %94)
  %96 = load i64, ptr %12, align 8, !tbaa !8
  %97 = add i64 %96, %95
  store i64 %97, ptr %12, align 8, !tbaa !8
  br label %98

98:                                               ; preds = %79
  %99 = load i32, ptr %14, align 4, !tbaa !10
  %100 = add i32 %99, 1
  store i32 %100, ptr %14, align 4, !tbaa !10
  br label %75, !llvm.loop !66

101:                                              ; preds = %75
  %102 = load i64, ptr %11, align 8, !tbaa !8
  %103 = load i64, ptr %12, align 8, !tbaa !8
  %104 = add i64 %102, %103
  %105 = call noundef i64 @_ZL14XXH3_avalanchem(i64 noundef %104)
  call void @llvm.lifetime.end.p0(i64 4, ptr %14) #22
  call void @llvm.lifetime.end.p0(i64 4, ptr %13) #22
  call void @llvm.lifetime.end.p0(i64 8, ptr %12) #22
  call void @llvm.lifetime.end.p0(i64 8, ptr %11) #22
  ret i64 %105
}