; Function Attrs: mustprogress nofree noinline nounwind willreturn memory(read) uwtable
define internal fastcc noundef i64 @_ZL21XXH3_len_129to240_64bPKhmS0_mm(ptr noundef readonly captures(none) %0, i64 noundef range(i64 129, 241) %1, ptr noundef readonly captures(none) %2, i64 noundef %3) unnamed_addr #27 {
  %5 = mul i64 %1, -7046029288634856825
  %6 = trunc nuw nsw i64 %1 to i32
  br label %7

7:                                                ; preds = %4, %7
  %indvars.iv = phi i64 [ 0, %4 ], [ %indvars.iv.next, %7 ]
  %.03549 = phi i64 [ %5, %4 ], [ %23, %7 ]
  %8 = shl nuw nsw i64 %indvars.iv, 4
  %9 = getelementptr inbounds nuw i8, ptr %0, i64 %8
  %10 = getelementptr inbounds nuw i8, ptr %2, i64 %8
  %.val48 = load i64, ptr %9, align 1, !tbaa !19
  %11 = getelementptr inbounds nuw i8, ptr %9, i64 8
  %.val47 = load i64, ptr %11, align 1, !tbaa !19
  %.val46 = load i64, ptr %10, align 1, !tbaa !19
  %12 = add i64 %.val46, %3
  %13 = xor i64 %12, %.val48
  %14 = getelementptr inbounds nuw i8, ptr %10, i64 8
  %.val45 = load i64, ptr %14, align 1, !tbaa !19
  %15 = sub i64 %.val45, %3
  %16 = xor i64 %15, %.val47
  %17 = zext i64 %13 to i128
  %18 = zext i64 %16 to i128
  %19 = mul nuw i128 %18, %17
  %20 = lshr i128 %19, 64
  %21 = xor i128 %20, %19
  %22 = trunc i128 %21 to i64
  %23 = add i64 %.03549, %22
  %indvars.iv.next = add nuw nsw i64 %indvars.iv, 1
  %exitcond.not = icmp eq i64 %indvars.iv.next, 8
  br i1 %exitcond.not, label %24, label %7, !llvm.loop !48

24:                                               ; preds = %7
  %25 = lshr i32 %6, 4
  %26 = getelementptr inbounds nuw i8, ptr %0, i64 %1
  %27 = getelementptr inbounds i8, ptr %26, i64 -16
  %28 = getelementptr inbounds nuw i8, ptr %2, i64 119
  %.val44 = load i64, ptr %27, align 1, !tbaa !19
  %29 = getelementptr inbounds i8, ptr %26, i64 -8
  %.val43 = load i64, ptr %29, align 1, !tbaa !19
  %.val42 = load i64, ptr %28, align 1, !tbaa !19
  %30 = add i64 %.val42, %3
  %31 = xor i64 %30, %.val44
  %32 = getelementptr inbounds nuw i8, ptr %2, i64 127
  %.val41 = load i64, ptr %32, align 1, !tbaa !19
  %33 = sub i64 %.val41, %3
  %34 = xor i64 %33, %.val43
  %35 = zext i64 %31 to i128
  %36 = zext i64 %34 to i128
  %37 = mul nuw i128 %36, %35
  %38 = lshr i128 %37, 64
  %39 = xor i128 %38, %37
  %40 = trunc i128 %39 to i64
  %41 = lshr i64 %23, 37
  %42 = xor i64 %41, %23
  %43 = mul i64 %42, 1609587791953885689
  %44 = lshr i64 %43, 32
  %45 = xor i64 %44, %43
  %.not = icmp eq i32 %25, 8
  br i1 %.not, label %._crit_edge, label %.lr.ph.preheader

.lr.ph.preheader:                                 ; preds = %24
  %wide.trip.count = zext nneg i32 %25 to i64
  br label %.lr.ph

.lr.ph:                                           ; preds = %.lr.ph.preheader, %.lr.ph
  %indvars.iv58 = phi i64 [ 8, %.lr.ph.preheader ], [ %indvars.iv.next59, %.lr.ph ]
  %.13652 = phi i64 [ %45, %.lr.ph.preheader ], [ %46, %.lr.ph ]
  %.03751 = phi i64 [ %40, %.lr.ph.preheader ], [ %63, %.lr.ph ]
  %46 = tail call i64 asm sideeffect "", "=r,0,~{dirflag},~{fpsr},~{flags}"(i64 %.13652) #34, !srcloc !49
  %47 = shl nuw nsw i64 %indvars.iv58, 4
  %48 = getelementptr inbounds nuw i8, ptr %0, i64 %47
  %49 = getelementptr i8, ptr %2, i64 %47
  %50 = getelementptr i8, ptr %49, i64 -125
  %.val40 = load i64, ptr %48, align 1, !tbaa !19
  %51 = getelementptr inbounds nuw i8, ptr %48, i64 8
  %.val39 = load i64, ptr %51, align 1, !tbaa !19
  %.val38 = load i64, ptr %50, align 1, !tbaa !19
  %52 = add i64 %.val38, %3
  %53 = xor i64 %52, %.val40
  %54 = getelementptr i8, ptr %49, i64 -117
  %.val = load i64, ptr %54, align 1, !tbaa !19
  %55 = sub i64 %.val, %3
  %56 = xor i64 %55, %.val39
  %57 = zext i64 %53 to i128
  %58 = zext i64 %56 to i128
  %59 = mul nuw i128 %58, %57
  %60 = lshr i128 %59, 64
  %61 = xor i128 %60, %59
  %62 = trunc i128 %61 to i64
  %63 = add i64 %.03751, %62
  %indvars.iv.next59 = add nuw nsw i64 %indvars.iv58, 1
  %exitcond61.not = icmp eq i64 %indvars.iv.next59, %wide.trip.count
  br i1 %exitcond61.not, label %._crit_edge, label %.lr.ph, !llvm.loop !50

._crit_edge:                                      ; preds = %.lr.ph, %24
  %.037.lcssa = phi i64 [ %40, %24 ], [ %63, %.lr.ph ]
  %.136.lcssa = phi i64 [ %45, %24 ], [ %46, %.lr.ph ]
  %64 = add i64 %.136.lcssa, %.037.lcssa
  %65 = lshr i64 %64, 37
  %66 = xor i64 %65, %64
  %67 = mul i64 %66, 1609587791953885689
  %68 = lshr i64 %67, 32
  %69 = xor i64 %68, %67
  ret i64 %69
}